
heapsort.image:     file format elf32-bigmips

Disassembly of section .text:

0000000040000000 <main>:
    40000000:	27bdffe8 	addiu	$sp,$sp,-24
    40000004:	afbf0010 	sw	$ra,16($sp)
    40000008:	3c047fff 	lui	$a0,0x7fff
    4000000c:	3484fffc 	ori	$a0,$a0,0xfffc
    40000010:	0c00000a 	jal	40000028 <heapsort>
    40000014:	24050064 	li	$a1,100
    40000018:	00001025 	move	$v0,$zero
    4000001c:	8fbf0010 	lw	$ra,16($sp)
    40000020:	03e00008 	jr	$ra
    40000024:	27bd0018 	addiu	$sp,$sp,24

0000000040000028 <heapsort>:
    40000028:	27bdffe0 	addiu	$sp,$sp,-32
    4000002c:	afbf001c 	sw	$ra,28($sp)
    40000030:	afb20018 	sw	$s2,24($sp)
    40000034:	afb10014 	sw	$s1,20($sp)
    40000038:	afb00010 	sw	$s0,16($sp)
    4000003c:	00a08825 	move	$s1,$a1
    40000040:	001117c2 	srl	$v0,$s1,31
    40000044:	02221021 	addu	$v0,$s1,$v0
    40000048:	00028043 	sra	$s0,$v0,1
    4000004c:	1a000008 	blez	$s0,40000070 <heapsort+0x48>
    40000050:	00809025 	move	$s2,$a0
    40000054:	02402025 	move	$a0,$s2
    40000058:	02002825 	move	$a1,$s0
    4000005c:	0c000030 	jal	400000c0 <adjust>
    40000060:	02203025 	move	$a2,$s1
    40000064:	2610ffff 	addiu	$s0,$s0,-1
    40000068:	1e00fffb 	bgtz	$s0,40000058 <heapsort+0x30>
    4000006c:	02402025 	move	$a0,$s2
    40000070:	2630ffff 	addiu	$s0,$s1,-1
    40000074:	1a00000d 	blez	$s0,400000ac <heapsort+0x84>
    40000078:	8fbf001c 	lw	$ra,28($sp)
    4000007c:	02402025 	move	$a0,$s2
    40000080:	24050001 	li	$a1,1
    40000084:	0c000055 	jal	40000154 <swap>
    40000088:	26060001 	addiu	$a2,$s0,1
    4000008c:	02402025 	move	$a0,$s2
    40000090:	24050001 	li	$a1,1
    40000094:	0c000030 	jal	400000c0 <adjust>
    40000098:	02003025 	move	$a2,$s0
    4000009c:	2610ffff 	addiu	$s0,$s0,-1
    400000a0:	1e00fff7 	bgtz	$s0,40000080 <heapsort+0x58>
    400000a4:	02402025 	move	$a0,$s2
    400000a8:	8fbf001c 	lw	$ra,28($sp)
    400000ac:	8fb20018 	lw	$s2,24($sp)
    400000b0:	8fb10014 	lw	$s1,20($sp)
    400000b4:	8fb00010 	lw	$s0,16($sp)
    400000b8:	03e00008 	jr	$ra
    400000bc:	27bd0020 	addiu	$sp,$sp,32

00000000400000c0 <adjust>:
    400000c0:	00051080 	sll	$v0,$a1,2
    400000c4:	00441021 	addu	$v0,$v0,$a0
    400000c8:	8c470000 	lw	$a3,0($v0)
    400000cc:	1000000a 	b	400000f8 <adjust+0x38>
    400000d0:	00052840 	sll	$a1,$a1,1
    400000d4:	00a21021 	addu	$v0,$a1,$v0
    400000d8:	00021043 	sra	$v0,$v0,1
    400000dc:	00021080 	sll	$v0,$v0,2
    400000e0:	00441021 	addu	$v0,$v0,$a0
    400000e4:	00051880 	sll	$v1,$a1,2
    400000e8:	00641821 	addu	$v1,$v1,$a0
    400000ec:	8c630000 	lw	$v1,0($v1)
    400000f0:	ac430000 	sw	$v1,0($v0)
    400000f4:	00052840 	sll	$a1,$a1,1
    400000f8:	00c5102a 	slt	$v0,$a2,$a1
    400000fc:	1440000f 	bnez	$v0,4000013c <adjust+0x7c>
    40000100:	000517c2 	srl	$v0,$a1,31
    40000104:	00a6102a 	slt	$v0,$a1,$a2
    40000108:	10400007 	beqz	$v0,40000128 <adjust+0x68>
    4000010c:	00051080 	sll	$v0,$a1,2
    40000110:	00441021 	addu	$v0,$v0,$a0
    40000114:	8c430000 	lw	$v1,0($v0)
    40000118:	8c420004 	lw	$v0,4($v0)
    4000011c:	0062182a 	slt	$v1,$v1,$v0
    40000120:	00a32821 	addu	$a1,$a1,$v1
    40000124:	00051080 	sll	$v0,$a1,2
    40000128:	00441021 	addu	$v0,$v0,$a0
    4000012c:	8c420000 	lw	$v0,0($v0)
    40000130:	0047102a 	slt	$v0,$v0,$a3
    40000134:	1040ffe7 	beqz	$v0,400000d4 <adjust+0x14>
    40000138:	000517c2 	srl	$v0,$a1,31
    4000013c:	00a21021 	addu	$v0,$a1,$v0
    40000140:	00021043 	sra	$v0,$v0,1
    40000144:	00021080 	sll	$v0,$v0,2
    40000148:	00441021 	addu	$v0,$v0,$a0
    4000014c:	03e00008 	jr	$ra
    40000150:	ac470000 	sw	$a3,0($v0)

0000000040000154 <swap>:
    40000154:	00052880 	sll	$a1,$a1,2
    40000158:	00a42821 	addu	$a1,$a1,$a0
    4000015c:	8ca30000 	lw	$v1,0($a1)
    40000160:	00063080 	sll	$a2,$a2,2
    40000164:	00c43021 	addu	$a2,$a2,$a0
    40000168:	8cc20000 	lw	$v0,0($a2)
    4000016c:	aca20000 	sw	$v0,0($a1)
    40000170:	03e00008 	jr	$ra
    40000174:	acc30000 	sw	$v1,0($a2)
Disassembly of section .data:
